; Function Attrs: mustprogress nounwind uwtable
define hidden void @_ZN18SafepointMechanism7processEP10JavaThreadbb(ptr noundef %0, i1 noundef zeroext %1, i1 noundef zeroext %2) local_unnamed_addr #0 align 2 {
  tail call void asm sideeffect "", "~{memory},~{dirflag},~{fpsr},~{flags}"() #9, !srcloc !6
  %4 = getelementptr inbounds i8, ptr %0, i64 1092
  %5 = getelementptr inbounds i8, ptr %0, i64 1392
  %6 = getelementptr inbounds i8, ptr %0, i64 1384
  br label %7

7:                                                ; preds = %17, %3
  %8 = load volatile i32, ptr %4, align 4
  %9 = icmp eq i32 %8, 6
  br i1 %9, label %12, label %10

10:                                               ; preds = %7
  %11 = load ptr, ptr @g_assert_poison, align 8
  store i8 88, ptr %11, align 1
  tail call void (ptr, i32, ptr, ptr, ...) @_Z15report_vm_errorPKciS0_S0_z(ptr noundef nonnull @.str.8, i32 noundef 143, ptr noundef nonnull @.str.9, ptr noundef nonnull @.str.10, i32 noundef %8) #10
  unreachable

12:                                               ; preds = %7
  %13 = load volatile i32, ptr @_ZN20SafepointSynchronize6_stateE, align 4
  %.not = icmp eq i32 %13, 0
  br i1 %.not, label %15, label %14

14:                                               ; preds = %12
  tail call void asm sideeffect "", "~{memory},~{dirflag},~{fpsr},~{flags}"() #9, !srcloc !6
  tail call void @_ZN20SafepointSynchronize5blockEP10JavaThread(ptr noundef nonnull %0) #9
  br label %15

15:                                               ; preds = %14, %12
  tail call void @_ZN17StackWatermarkSet12on_safepointEP10JavaThread(ptr noundef nonnull %0) #9
  %16 = load volatile ptr, ptr %5, align 8
  tail call void asm sideeffect "", "~{memory},~{dirflag},~{fpsr},~{flags}"() #9, !srcloc !6
  %.not10 = icmp eq ptr %16, null
  br i1 %.not10, label %.critedge, label %17

17:                                               ; preds = %15
  %18 = tail call noundef zeroext i1 @_ZN14HandshakeState15process_by_selfEbb(ptr noundef nonnull align 8 dereferenceable(131) %6, i1 noundef zeroext %1, i1 noundef zeroext %2) #9
  br i1 %18, label %7, label %.critedge, !llvm.loop !12

.critedge:                                        ; preds = %15, %17
  tail call void @_ZN18SafepointMechanism18update_poll_valuesEP10JavaThread(ptr noundef nonnull %0)
  ret void
}